target datalayout = "e-m:e-p270:32:32-p271:32:32-p272:64:64-i64:64-i128:128-f80:128-n8:16:32:64-S128"
target triple = "x86_64-pc-linux-gnu"

@.str.7 = private unnamed_addr constant [40 x i8] c"../openssl/test/namemap_internal_test.c\00", align 1
@.str.39 = private unnamed_addr constant [8 x i8] c"fetched\00", align 1
@.str.48 = private unnamed_addr constant [12 x i8] c"AES-256-CCM\00", align 1
@.str.49 = private unnamed_addr constant [42 x i8] c"EVP_CIPHER_is_a(fetched, \22id-aes256-CCM\22)\00", align 1
@.str.50 = private unnamed_addr constant [14 x i8] c"id-aes256-CCM\00", align 1
@.str.51 = private unnamed_addr constant [40 x i8] c"EVP_CIPHER_is_a(fetched, \22AES-128-GCM\22)\00", align 1
@.str.52 = private unnamed_addr constant [12 x i8] c"AES-128-GCM\00", align 1
@.str.53 = private unnamed_addr constant [50 x i8] c"EVP_CIPHER_is_a(EVP_aes_256_gcm(), \22AES-256-GCM\22)\00", align 1
@.str.54 = private unnamed_addr constant [12 x i8] c"AES-256-GCM\00", align 1
@.str.55 = private unnamed_addr constant [50 x i8] c"EVP_CIPHER_is_a(EVP_aes_256_gcm(), \22AES-128-CCM\22)\00", align 1
@.str.56 = private unnamed_addr constant [12 x i8] c"AES-128-CCM\00", align 1

; Function Attrs: nounwind uwtable
define internal i32 @test_cipher_is_a() #0 {
  %1 = alloca i32, align 4
  %2 = alloca ptr, align 8
  %3 = alloca i32, align 4
  %4 = alloca i32, align 4
  call void @llvm.lifetime.start.p0(i64 8, ptr %2) #3
  %5 = call ptr @EVP_CIPHER_fetch(ptr noundef null, ptr noundef @.str.48, ptr noundef null)
  store ptr %5, ptr %2, align 8, !tbaa !13
  call void @llvm.lifetime.start.p0(i64 4, ptr %3) #3
  store i32 1, ptr %3, align 4, !tbaa !9
  %6 = load ptr, ptr %2, align 8, !tbaa !13
  %7 = call i32 @test_ptr(ptr noundef @.str.7, i32 noundef 138, ptr noundef @.str.39, ptr noundef %6)
  %8 = icmp ne i32 %7, 0
  br i1 %8, label %10, label %9

9:                                                ; preds = %0
  store i32 0, ptr %1, align 4
  store i32 1, ptr %4, align 4
  br label %43

10:                                               ; preds = %0
  %11 = load ptr, ptr %2, align 8, !tbaa !13
  %12 = call i32 @EVP_CIPHER_is_a(ptr noundef %11, ptr noundef @.str.50)
  %13 = icmp ne i32 %12, 0
  %14 = zext i1 %13 to i32
  %15 = call i32 @test_true(ptr noundef @.str.7, i32 noundef 140, ptr noundef @.str.49, i32 noundef %14)
  %16 = icmp ne i32 %15, 0
  br i1 %16, label %17, label %24

17:                                               ; preds = %10
  %18 = load ptr, ptr %2, align 8, !tbaa !13
  %19 = call i32 @EVP_CIPHER_is_a(ptr noundef %18, ptr noundef @.str.52)
  %20 = icmp ne i32 %19, 0
  %21 = zext i1 %20 to i32
  %22 = call i32 @test_false(ptr noundef @.str.7, i32 noundef 141, ptr noundef @.str.51, i32 noundef %21)
  %23 = icmp ne i32 %22, 0
  br i1 %23, label %25, label %24

24:                                               ; preds = %17, %10
  store i32 0, ptr %3, align 4, !tbaa !9
  br label %25

25:                                               ; preds = %24, %17
  %26 = call ptr @EVP_aes_256_gcm()
  %27 = call i32 @EVP_CIPHER_is_a(ptr noundef %26, ptr noundef @.str.54)
  %28 = icmp ne i32 %27, 0
  %29 = zext i1 %28 to i32
  %30 = call i32 @test_true(ptr noundef @.str.7, i32 noundef 143, ptr noundef @.str.53, i32 noundef %29)
  %31 = icmp ne i32 %30, 0
  br i1 %31, label %32, label %39

32:                                               ; preds = %25
  %33 = call ptr @EVP_aes_256_gcm()
  %34 = call i32 @EVP_CIPHER_is_a(ptr noundef %33, ptr noundef @.str.56)
  %35 = icmp ne i32 %34, 0
  %36 = zext i1 %35 to i32
  %37 = call i32 @test_false(ptr noundef @.str.7, i32 noundef 144, ptr noundef @.str.55, i32 noundef %36)
  %38 = icmp ne i32 %37, 0
  br i1 %38, label %40, label %39

39:                                               ; preds = %32, %25
  store i32 0, ptr %3, align 4, !tbaa !9
  br label %40

40:                                               ; preds = %39, %32
  %41 = load ptr, ptr %2, align 8, !tbaa !13
  call void @EVP_CIPHER_free(ptr noundef %41)
  %42 = load i32, ptr %3, align 4, !tbaa !9
  store i32 %42, ptr %1, align 4
  store i32 1, ptr %4, align 4
  br label %43

43:                                               ; preds = %40, %9
  call void @llvm.lifetime.end.p0(i64 4, ptr %3) #3
  call void @llvm.lifetime.end.p0(i64 8, ptr %2) #3
  %44 = load i32, ptr %1, align 4
  ret i32 %44
}